(dp1
S'stride_conv1'
p2
(lp3
I2
aI2
asS'channel_conv1'
p4
I48
sS'lrate'
p5
F1e-08
sS'decay_c'
p6
F0.0001
sS'patience'
p7
I15
sS'clip_c'
p8
F100
sS'max_epochs'
p9
I5000
sS'dispFreq'
p10
I100
sS'GrowthRate'
p11
I24
sS'batch_Imagesize'
p12
I400000
sS'input_channels'
p13
I1
sS'bn_saveto'
p14
S'./models/bn_params.npz'
p15
sS'maxlen'
p16
I200
sS'DenseBlock'
p17
(lp18
I16
aI16
aI16
asS'saveto'
p19
S'./models/attention_maxlen[200]_dimWord256_dim256.npz'
p20
sS'dim_coverage'
p21
I512
sS'valid_result'
p22
(lp23
S'./result/valid.wer'
p24
asS'valid_batch_size'
p25
I8
sS'maxImagesize'
p26
I400000
sS'Bottleneck'
p27
I01
sS'dim_dec'
p28
I256
sS'validFreq'
p29
I-1
sS'kernel_coverage'
p30
(lp31
I11
aI11
asS'optimizer'
p32
S'adadelta'
p33
sS'alpha_c'
p34
F0
sS'Transition'
p35
F0.5
sS'valid_output'
p36
(lp37
S'./result/valid_decode_result.txt'
p38
asS'batch_size'
p39
I8
sS'encoder'
p40
S'gru'
p41
sS'dim_target'
p42
I111
sS'decoder'
p43
S'gru_cond'
p44
sS'valid_datasets'
p45
(lp46
S'../data/offline-test.pkl'
p47
aS'../data/test_caption.txt'
p48
asS'use_dropout'
p49
I01
sS'datasets'
p50
(lp51
S'../data/offline-train.pkl'
p52
aS'../data/train_caption.txt'
p53
asS'dim_word'
p54
I256
sS'sampleFreq'
p55
I-1
sS'dim_attention'
p56
I512
sS'dictionaries'
p57
(lp58
S'../data/dictionary.txt'
p59
asS'saveFreq'
p60
I-1
sS'kernel_conv1'
p61
(lp62
I7
aI7
asS'finish_after'
p63
I10000000
sS'reload_'
p64
I00
sS'valid_batch_Imagesize'
p65
I400000
s.