(dp1
S'lrate'
p2
F0.00020000000000000001
sS'dim_ConvBlock'
p3
(lp4
I32
aI64
aI64
aI128
asS'decay_c'
p5
F0.0001
sS'patience'
p6
I15
sS'max_epochs'
p7
I5000
sS'dispFreq'
p8
I100
sS'batch_Imagesize'
p9
I500000
sS'input_channels'
p10
I1
sS'bn_saveto'
p11
S'./models/bn_params.npz'
p12
sS'saveto'
p13
S'./models/attention_maxlen[200]_dimWord256_dim256.npz'
p14
sS'clip_c'
p15
F100
sS'kernel_Convenc'
p16
(lp17
I3
aI3
asS'dim_coverage'
p18
I128
sS'valid_result'
p19
(lp20
S'./result/valid.wer'
p21
asS'valid_batch_size'
p22
I8
sS'maxImagesize'
p23
I500000
sS'dim_dec'
p24
I256
sS'validFreq'
p25
I-1
sS'kernel_coverage'
p26
(lp27
I5
aI5
asS'optimizer'
p28
S'adam'
p29
sS'alpha_c'
p30
F0
sS'valid_output'
p31
(lp32
S'./result/valid_decode_result.txt'
p33
asS'batch_size'
p34
I8
sS'encoder'
p35
S'gru'
p36
sS'dim_target'
p37
I111
sS'decoder'
p38
S'gru_cond'
p39
sS'valid_datasets'
p40
(lp41
S'../data/offline-test.pkl'
p42
aS'../data/test_caption.txt'
p43
asS'layersNum_block'
p44
(lp45
I4
aI4
aI4
aI4
asS'use_dropout'
p46
I01
sS'datasets'
p47
(lp48
S'../data/offline-train.pkl'
p49
aS'../data/train_caption.txt'
p50
asS'dim_word'
p51
I256
sS'sampleFreq'
p52
I-1
sS'dim_attention'
p53
I128
sS'dictionaries'
p54
(lp55
S'../data/dictionary.txt'
p56
asS'saveFreq'
p57
I-1
sS'maxlen'
p58
I200
sS'finish_after'
p59
I10000000
sS'reload_'
p60
I00
sS'valid_batch_Imagesize'
p61
I500000
s.